target datalayout = "e-m:e-p270:32:32-p271:32:32-p272:64:64-i64:64-i128:128-f80:128-n8:16:32:64-S128"
target triple = "x86_64-pc-linux-gnu"

%struct.KDF_ARGON2 = type { ptr, i32, ptr, i32, ptr, i32, ptr, i32, ptr, i32, i32, i32, i32, i32, i32, i32, i32, ptr, i32, i32, i32, i32, ptr, ptr, ptr, ptr }

@.str = private unnamed_addr constant [51 x i8] c"../openssl/providers/implementations/kdfs/argon2.c\00", align 1

; Function Attrs: nounwind uwtable
define internal i32 @set_property_query(ptr noundef %0, ptr noundef %1) #0 {
  %3 = alloca i32, align 4
  %4 = alloca ptr, align 8
  %5 = alloca ptr, align 8
  store ptr %0, ptr %4, align 8, !tbaa !3
  store ptr %1, ptr %5, align 8, !tbaa !28
  %6 = load ptr, ptr %4, align 8, !tbaa !3
  %7 = getelementptr inbounds nuw %struct.KDF_ARGON2, ptr %6, i32 0, i32 25
  %8 = load ptr, ptr %7, align 8, !tbaa !24
  call void @CRYPTO_free(ptr noundef %8, ptr noundef @.str, i32 noundef 1377)
  %9 = load ptr, ptr %4, align 8, !tbaa !3
  %10 = getelementptr inbounds nuw %struct.KDF_ARGON2, ptr %9, i32 0, i32 25
  store ptr null, ptr %10, align 8, !tbaa !24
  %11 = load ptr, ptr %5, align 8, !tbaa !28
  %12 = icmp ne ptr %11, null
  br i1 %12, label %13, label %24

13:                                               ; preds = %2
  %14 = load ptr, ptr %5, align 8, !tbaa !28
  %15 = call noalias ptr @CRYPTO_strdup(ptr noundef %14, ptr noundef @.str, i32 noundef 1380)
  %16 = load ptr, ptr %4, align 8, !tbaa !3
  %17 = getelementptr inbounds nuw %struct.KDF_ARGON2, ptr %16, i32 0, i32 25
  store ptr %15, ptr %17, align 8, !tbaa !24
  %18 = load ptr, ptr %4, align 8, !tbaa !3
  %19 = getelementptr inbounds nuw %struct.KDF_ARGON2, ptr %18, i32 0, i32 25
  %20 = load ptr, ptr %19, align 8, !tbaa !24
  %21 = icmp eq ptr %20, null
  br i1 %21, label %22, label %23

22:                                               ; preds = %13
  store i32 0, ptr %3, align 4
  br label %35

23:                                               ; preds = %13
  br label %24

24:                                               ; preds = %23, %2
  %25 = load ptr, ptr %4, align 8, !tbaa !3
  %26 = getelementptr inbounds nuw %struct.KDF_ARGON2, ptr %25, i32 0, i32 23
  %27 = load ptr, ptr %26, align 8, !tbaa !22
  call void @EVP_MD_free(ptr noundef %27)
  %28 = load ptr, ptr %4, align 8, !tbaa !3
  %29 = getelementptr inbounds nuw %struct.KDF_ARGON2, ptr %28, i32 0, i32 23
  store ptr null, ptr %29, align 8, !tbaa !22
  %30 = load ptr, ptr %4, align 8, !tbaa !3
  %31 = getelementptr inbounds nuw %struct.KDF_ARGON2, ptr %30, i32 0, i32 24
  %32 = load ptr, ptr %31, align 8, !tbaa !23
  call void @EVP_MAC_free(ptr noundef %32)
  %33 = load ptr, ptr %4, align 8, !tbaa !3
  %34 = getelementptr inbounds nuw %struct.KDF_ARGON2, ptr %33, i32 0, i32 24
  store ptr null, ptr %34, align 8, !tbaa !23
  store i32 1, ptr %3, align 4
  br label %35

35:                                               ; preds = %24, %22
  %36 = load i32, ptr %3, align 4
  ret i32 %36
}