; Function Attrs: nounwind uwtable
define internal fastcc range(i32 0, 2) i32 @set_property_query(ptr noundef captures(none) %0, ptr noundef %1) unnamed_addr #0 {
  %3 = getelementptr inbounds nuw i8, ptr %0, i64 152
  %4 = load ptr, ptr %3, align 8, !tbaa !30
  tail call void @CRYPTO_free(ptr noundef %4, ptr noundef nonnull @.str, i32 noundef 1377) #10
  store ptr null, ptr %3, align 8, !tbaa !30
  %.not = icmp eq ptr %1, null
  br i1 %.not, label %8, label %5

5:                                                ; preds = %2
  %6 = tail call noalias ptr @CRYPTO_strdup(ptr noundef nonnull %1, ptr noundef nonnull @.str, i32 noundef 1380) #10
  store ptr %6, ptr %3, align 8, !tbaa !30
  %7 = icmp eq ptr %6, null
  br i1 %7, label %13, label %8

8:                                                ; preds = %5, %2
  %9 = getelementptr inbounds nuw i8, ptr %0, i64 136
  %10 = load ptr, ptr %9, align 8, !tbaa !28
  tail call void @EVP_MD_free(ptr noundef %10) #10
  store ptr null, ptr %9, align 8, !tbaa !28
  %11 = getelementptr inbounds nuw i8, ptr %0, i64 144
  %12 = load ptr, ptr %11, align 8, !tbaa !29
  tail call void @EVP_MAC_free(ptr noundef %12) #10
  store ptr null, ptr %11, align 8, !tbaa !29
  br label %13

13:                                               ; preds = %5, %8
  %.0 = phi i32 [ 1, %8 ], [ 0, %5 ]
  ret i32 %.0
}